	.file	"main.cpp"
.lcomm __ZStL8__ioinit,1,1
	.def	___main;	.scl	2;	.type	32;	.endef
	.section .rdata,"dr"
LC0:
	.ascii "a = \0"
LC1:
	.ascii "b = \0"
LC4:
	.ascii "fa = \0"
LC5:
	.ascii "fb = \0"
	.text
	.globl	_main
	.def	_main;	.scl	2;	.type	32;	.endef
_main:
LFB948:
	.cfi_startproc
	pushl	%ebp
	.cfi_def_cfa_offset 8
	.cfi_offset 5, -8
	movl	%esp, %ebp
	.cfi_def_cfa_register 5
	pushl	%ebx
	andl	$-16, %esp
	subl	$32, %esp
	.cfi_offset 3, -12
	call	___main
	movl	$1, 28(%esp)
	movl	$2, 24(%esp)
	leal	24(%esp), %eax
	movl	%eax, 4(%esp)
	leal	28(%esp), %eax
	movl	%eax, (%esp)
	call	__Z5swap1IiEvRT_S1_
	movl	28(%esp), %ebx
	movl	$LC0, 4(%esp)
	movl	$__ZSt4cout, (%esp)
	call	__ZStlsISt11char_traitsIcEERSt13basic_ostreamIcT_ES5_PKc
	movl	%ebx, 4(%esp)
	movl	%eax, (%esp)
	call	__ZNSolsEi
	movl	$__ZSt4endlIcSt11char_traitsIcEERSt13basic_ostreamIT_T0_ES6_, 4(%esp)
	movl	%eax, (%esp)
	call	__ZNSolsEPFRSoS_E
	movl	24(%esp), %ebx
	movl	$LC1, 4(%esp)
	movl	$__ZSt4cout, (%esp)
	call	__ZStlsISt11char_traitsIcEERSt13basic_ostreamIcT_ES5_PKc
	movl	%ebx, 4(%esp)
	movl	%eax, (%esp)
	call	__ZNSolsEi
	movl	$__ZSt4endlIcSt11char_traitsIcEERSt13basic_ostreamIT_T0_ES6_, 4(%esp)
	movl	%eax, (%esp)
	call	__ZNSolsEPFRSoS_E
	movl	$0x4124cccd, %eax
	movl	%eax, 20(%esp)
	movl	$0x41433333, %eax
	movl	%eax, 16(%esp)
	leal	16(%esp), %eax
	movl	%eax, 4(%esp)
	leal	20(%esp), %eax
	movl	%eax, (%esp)
	call	__Z5swap1IfEvRT_S1_
	movl	20(%esp), %ebx
	movl	$LC4, 4(%esp)
	movl	$__ZSt4cout, (%esp)
	call	__ZStlsISt11char_traitsIcEERSt13basic_ostreamIcT_ES5_PKc
	movl	%ebx, 4(%esp)
	movl	%eax, (%esp)
	call	__ZNSolsEf
	movl	$__ZSt4endlIcSt11char_traitsIcEERSt13basic_ostreamIT_T0_ES6_, 4(%esp)
	movl	%eax, (%esp)
	call	__ZNSolsEPFRSoS_E
	movl	16(%esp), %ebx
	movl	$LC5, 4(%esp)
	movl	$__ZSt4cout, (%esp)
	call	__ZStlsISt11char_traitsIcEERSt13basic_ostreamIcT_ES5_PKc
	movl	%ebx, 4(%esp)
	movl	%eax, (%esp)
	call	__ZNSolsEf
	movl	$__ZSt4endlIcSt11char_traitsIcEERSt13basic_ostreamIT_T0_ES6_, 4(%esp)
	movl	%eax, (%esp)
	call	__ZNSolsEPFRSoS_E
	movl	$0, %eax
	movl	-4(%ebp), %ebx
	leave
	.cfi_restore 5
	.cfi_def_cfa 4, 4
	.cfi_restore 3
	ret
	.cfi_endproc
LFE948:
	.section	.text$_Z5swap1IiEvRT_S1_,"x"
	.linkonce discard
	.globl	__Z5swap1IiEvRT_S1_
	.def	__Z5swap1IiEvRT_S1_;	.scl	2;	.type	32;	.endef
__Z5swap1IiEvRT_S1_:
LFB949:
	.cfi_startproc
	pushl	%ebp
	.cfi_def_cfa_offset 8
	.cfi_offset 5, -8
	movl	%esp, %ebp
	.cfi_def_cfa_register 5
	subl	$16, %esp
	movl	8(%ebp), %eax
	movl	(%eax), %eax
	movl	%eax, -4(%ebp)
	movl	12(%ebp), %eax
	movl	(%eax), %edx
	movl	8(%ebp), %eax
	movl	%edx, (%eax)
	movl	12(%ebp), %eax
	movl	-4(%ebp), %edx
	movl	%edx, (%eax)
	leave
	.cfi_restore 5
	.cfi_def_cfa 4, 4
	ret
	.cfi_endproc
LFE949:
	.section	.text$_Z5swap1IfEvRT_S1_,"x"
	.linkonce discard
	.globl	__Z5swap1IfEvRT_S1_
	.def	__Z5swap1IfEvRT_S1_;	.scl	2;	.type	32;	.endef
__Z5swap1IfEvRT_S1_:
LFB953:
	.cfi_startproc
	pushl	%ebp
	.cfi_def_cfa_offset 8
	.cfi_offset 5, -8
	movl	%esp, %ebp
	.cfi_def_cfa_register 5
	subl	$16, %esp
	movl	8(%ebp), %eax
	movl	(%eax), %eax
	movl	%eax, -4(%ebp)
	movl	12(%ebp), %eax
	movl	(%eax), %edx
	movl	8(%ebp), %eax
	movl	%edx, (%eax)
	movl	12(%ebp), %eax
	movl	-4(%ebp), %edx
	movl	%edx, (%eax)
	leave
	.cfi_restore 5
	.cfi_def_cfa 4, 4
	ret
	.cfi_endproc
LFE953:
	.text
	.def	___tcf_0;	.scl	3;	.type	32;	.endef
___tcf_0:
LFB961:
	.cfi_startproc
	pushl	%ebp
	.cfi_def_cfa_offset 8
	.cfi_offset 5, -8
	movl	%esp, %ebp
	.cfi_def_cfa_register 5
	subl	$24, %esp
	movl	$__ZStL8__ioinit, (%esp)
	call	__ZNSt8ios_base4InitD1Ev
	leave
	.cfi_restore 5
	.cfi_def_cfa 4, 4
	ret
	.cfi_endproc
LFE961:
	.def	__Z41__static_initialization_and_destruction_0ii;	.scl	3;	.type	32;	.endef
__Z41__static_initialization_and_destruction_0ii:
LFB960:
	.cfi_startproc
	pushl	%ebp
	.cfi_def_cfa_offset 8
	.cfi_offset 5, -8
	movl	%esp, %ebp
	.cfi_def_cfa_register 5
	subl	$24, %esp
	cmpl	$1, 8(%ebp)
	jne	L5
	cmpl	$65535, 12(%ebp)
	jne	L5
	movl	$__ZStL8__ioinit, (%esp)
	call	__ZNSt8ios_base4InitC1Ev
	movl	$___tcf_0, (%esp)
	call	_atexit
L5:
	leave
	.cfi_restore 5
	.cfi_def_cfa 4, 4
	ret
	.cfi_endproc
LFE960:
	.def	__GLOBAL__sub_I_main;	.scl	3;	.type	32;	.endef
__GLOBAL__sub_I_main:
LFB962:
	.cfi_startproc
	pushl	%ebp
	.cfi_def_cfa_offset 8
	.cfi_offset 5, -8
	movl	%esp, %ebp
	.cfi_def_cfa_register 5
	subl	$24, %esp
	movl	$65535, 4(%esp)
	movl	$1, (%esp)
	call	__Z41__static_initialization_and_destruction_0ii
	leave
	.cfi_restore 5
	.cfi_def_cfa 4, 4
	ret
	.cfi_endproc
LFE962:
	.section	.ctors,"w"
	.align 4
	.long	__GLOBAL__sub_I_main
	.def	__ZSt4endlIcSt11char_traitsIcEERSt13basic_ostreamIT_T0_ES6_;	.scl	2;	.type	32;	.endef
	.def	__ZStlsISt11char_traitsIcEERSt13basic_ostreamIcT_ES5_PKc;	.scl	2;	.type	32;	.endef
	.def	__ZNSolsEi;	.scl	2;	.type	32;	.endef
	.def	__ZNSolsEPFRSoS_E;	.scl	2;	.type	32;	.endef
	.def	__ZNSolsEf;	.scl	2;	.type	32;	.endef
	.def	__ZNSt8ios_base4InitD1Ev;	.scl	2;	.type	32;	.endef
	.def	__ZNSt8ios_base4InitC1Ev;	.scl	2;	.type	32;	.endef
	.def	_atexit;	.scl	2;	.type	32;	.endef
